CCS PCM C Compiler, Version 5.010, 21806               09-jul.-17 18:52

               Filename:   E:\iWork\PROYECTOS_PIC\PROYECTOS TERMINADOS\PIR+LDR\con12f675.lst

               ROM used:   291 words (28%)
                           Largest free fragment is 733
               RAM used:   10 (16%) at main() level
                           18 (28%) worst case
               Stack used: 2 locations
               Stack size: 8

*
0000:  MOVLW  00
0001:  MOVWF  0A
0002:  GOTO   004
0003:  NOP
0004:  CALL   3FF
0005:  BSF    03.5
0006:  MOVWF  10
0007:  MOVLW  00
0008:  MOVWF  0A
0009:  GOTO   099
.................... #include <12F675.h> 
.................... //////// Standard Header file for the PIC12F675 device //////////////// 
.................... #device PIC12F675 
*
0041:  MOVF   04,W
0042:  MOVWF  30
0043:  SWAPF  2A,W
0044:  IORLW  F0
0045:  MOVWF  2C
0046:  ADDWF  2C,F
0047:  ADDLW  E2
0048:  MOVWF  2D
0049:  ADDLW  32
004A:  MOVWF  2F
004B:  MOVF   2A,W
004C:  ANDLW  0F
004D:  ADDWF  2D,F
004E:  ADDWF  2D,F
004F:  ADDWF  2F,F
0050:  ADDLW  E9
0051:  MOVWF  2E
0052:  ADDWF  2E,F
0053:  ADDWF  2E,F
0054:  SWAPF  29,W
0055:  ANDLW  0F
0056:  ADDWF  2E,F
0057:  ADDWF  2F,F
0058:  RLF    2E,F
0059:  RLF    2F,F
005A:  COMF   2F,F
005B:  RLF    2F,F
005C:  MOVF   29,W
005D:  ANDLW  0F
005E:  ADDWF  2F,F
005F:  RLF    2C,F
0060:  MOVLW  07
0061:  MOVWF  2B
0062:  MOVLW  0A
0063:  ADDWF  2F,F
0064:  DECF   2E,F
0065:  BTFSS  03.0
0066:  GOTO   063
0067:  ADDWF  2E,F
0068:  DECF   2D,F
0069:  BTFSS  03.0
006A:  GOTO   067
006B:  ADDWF  2D,F
006C:  DECF   2C,F
006D:  BTFSS  03.0
006E:  GOTO   06B
006F:  ADDWF  2C,F
0070:  DECF   2B,F
0071:  BTFSS  03.0
0072:  GOTO   06F
0073:  MOVLW  2B
0074:  MOVWF  04
0075:  MOVLW  07
0076:  ANDWF  30,W
0077:  BCF    30.6
0078:  ADDWF  04,F
0079:  MOVLW  2F
007A:  SUBWF  04,W
007B:  BTFSC  03.2
007C:  BSF    30.6
007D:  MOVF   00,W
007E:  MOVWF  20
007F:  BTFSS  03.2
0080:  GOTO   089
0081:  BTFSC  30.6
0082:  GOTO   089
0083:  BTFSC  30.4
0084:  GOTO   095
0085:  BTFSC  30.3
0086:  GOTO   089
0087:  MOVLW  20
0088:  GOTO   08C
0089:  BSF    30.3
008A:  BCF    30.4
008B:  MOVLW  30
008C:  ADDWF  20,F
008D:  CLRF   2A
008E:  MOVF   04,W
008F:  MOVWF  29
0090:  MOVF   20,W
0091:  MOVWF  31
0092:  CALL   01E
0093:  MOVF   29,W
0094:  MOVWF  04
0095:  INCF   04,F
0096:  BTFSS  30.6
0097:  GOTO   079
0098:  RETURN
....................  
.................... #list 
....................  
.................... #device ADC=10 
....................  
.................... #FUSES NOWDT       //No Watch Dog Timer 
.................... #fuses INTRC_IO    //Internal RC Osc, no CLKOUT 
.................... #fuses PUT         //Power Up Timer 
.................... #fuses NOMCLR      //Master Clear pin used for I/O 
.................... #fuses BROWNOUT    //Reset when brownout detected 
.................... #fuses PROTECT     //Code protected from reads 
....................  
.................... #use delay(internal=4MHz) 
*
000A:  MOVLW  2A
000B:  MOVWF  04
000C:  MOVF   00,W
000D:  BTFSC  03.2
000E:  GOTO   01D
000F:  MOVLW  01
0010:  MOVWF  21
0011:  CLRF   20
0012:  DECFSZ 20,F
0013:  GOTO   012
0014:  DECFSZ 21,F
0015:  GOTO   011
0016:  MOVLW  4A
0017:  MOVWF  20
0018:  DECFSZ 20,F
0019:  GOTO   018
001A:  GOTO   01B
001B:  DECFSZ 00,F
001C:  GOTO   00F
001D:  RETURN
.................... #use FIXED_IO( A_outputs=PIN_A4,PIN_A0 ) 
.................... #use rs232(baud=9600,parity=N,xmit=PIN_A0,rcv=PIN_A1,bits=8,stream=PORT1) 
001E:  MOVLW  EE
001F:  BSF    03.5
0020:  MOVWF  05
0021:  BCF    03.5
0022:  BCF    05.0
0023:  MOVLW  08
0024:  MOVWF  21
0025:  GOTO   026
0026:  NOP
0027:  BSF    21.7
0028:  GOTO   037
0029:  BCF    21.7
002A:  RRF    31,F
002B:  BTFSC  03.0
002C:  BSF    05.0
002D:  BTFSS  03.0
002E:  BCF    05.0
002F:  BSF    21.6
0030:  GOTO   037
0031:  BCF    21.6
0032:  DECFSZ 21,F
0033:  GOTO   02A
0034:  GOTO   035
0035:  NOP
0036:  BSF    05.0
0037:  MOVLW  1C
0038:  MOVWF  04
0039:  DECFSZ 04,F
003A:  GOTO   039
003B:  GOTO   03C
003C:  BTFSC  21.7
003D:  GOTO   029
003E:  BTFSC  21.6
003F:  GOTO   031
0040:  RETURN
....................  
.................... #define SETPOINT  512 
....................  
.................... int16 a=0,b=0; 
....................  
.................... int1 flag=0; 
....................  
.................... void main() 
*
0099:  MOVF   03,W
009A:  ANDLW  1F
009B:  MOVWF  03
009C:  MOVLW  EE
009D:  BSF    03.5
009E:  MOVWF  05
009F:  BCF    03.5
00A0:  BSF    05.0
00A1:  CLRF   25
00A2:  CLRF   24
00A3:  CLRF   27
00A4:  CLRF   26
00A5:  BCF    28.0
00A6:  BCF    1F.6
00A7:  BSF    03.5
00A8:  BCF    1F.0
00A9:  BCF    1F.1
00AA:  BCF    1F.2
00AB:  BCF    1F.3
00AC:  MOVLW  07
00AD:  BCF    03.5
00AE:  MOVWF  19
.................... { 
....................    port_A_pullups(0x20); 
00AF:  BSF    03.5
00B0:  BCF    01.7
....................    setup_adc_ports(4); 
00B1:  BCF    03.5
00B2:  BCF    1F.6
00B3:  BSF    03.5
00B4:  BCF    1F.0
00B5:  BCF    1F.1
00B6:  BSF    1F.2
00B7:  BCF    1F.3
....................    setup_adc(ADC_CLOCK_INTERNAL); 
00B8:  BSF    1F.4
00B9:  BSF    1F.5
00BA:  BCF    1F.6
00BB:  BCF    03.5
00BC:  BSF    1F.7
00BD:  BSF    1F.0
....................    set_adc_channel(2); 
00BE:  MOVLW  08
00BF:  MOVWF  21
00C0:  MOVF   1F,W
00C1:  ANDLW  F3
00C2:  IORWF  21,W
00C3:  MOVWF  1F
....................    output_bit(PIN_A4,0); 
00C4:  BCF    05.4
00C5:  MOVLW  EE
00C6:  BSF    03.5
00C7:  MOVWF  05
....................    delay_ms(1);    
00C8:  MOVLW  01
00C9:  BCF    03.5
00CA:  MOVWF  2A
00CB:  CALL   00A
....................     
....................    while(1) 
....................    { 
....................       a=read_adc(); 
00CC:  BSF    1F.1
00CD:  BTFSC  1F.1
00CE:  GOTO   0CD
00CF:  BSF    03.5
00D0:  MOVF   1E,W
00D1:  BCF    03.5
00D2:  MOVWF  24
00D3:  MOVF   1E,W
00D4:  MOVWF  25
....................       b=input(PIN_A5); 
00D5:  MOVLW  EE
00D6:  BSF    03.5
00D7:  MOVWF  05
00D8:  BCF    03.5
00D9:  CLRF   26
00DA:  BTFSC  05.5
00DB:  INCF   26,F
00DC:  CLRF   27
....................       printf("%lu  %lu\r\n",a,b); 
00DD:  MOVLW  10
00DE:  MOVWF  04
00DF:  MOVF   25,W
00E0:  MOVWF  2A
00E1:  MOVF   24,W
00E2:  MOVWF  29
00E3:  CALL   041
00E4:  MOVLW  20
00E5:  MOVWF  31
00E6:  CALL   01E
00E7:  MOVLW  20
00E8:  MOVWF  31
00E9:  CALL   01E
00EA:  MOVLW  10
00EB:  MOVWF  04
00EC:  MOVF   27,W
00ED:  MOVWF  2A
00EE:  MOVF   26,W
00EF:  MOVWF  29
00F0:  CALL   041
00F1:  MOVLW  0D
00F2:  MOVWF  31
00F3:  CALL   01E
00F4:  MOVLW  0A
00F5:  MOVWF  31
00F6:  CALL   01E
....................        
....................      if(a >= SETPOINT) flag=1; 
00F7:  MOVF   25,W
00F8:  SUBLW  01
00F9:  BTFSC  03.0
00FA:  GOTO   0FD
00FB:  BSF    28.0
00FC:  GOTO   0FE
....................      else flag=0; 
00FD:  BCF    28.0
....................       
....................       if( flag==1 && b==1 ) 
00FE:  BTFSS  28.0
00FF:  GOTO   115
0100:  DECFSZ 26,W
0101:  GOTO   115
0102:  MOVF   27,F
0103:  BTFSS  03.2
0104:  GOTO   115
....................       while(b) { output_bit(PIN_A4,1); b=input(PIN_A5); } 
0105:  MOVF   26,W
0106:  IORWF  27,W
0107:  BTFSC  03.2
0108:  GOTO   114
0109:  BSF    05.4
010A:  MOVLW  EE
010B:  BSF    03.5
010C:  MOVWF  05
010D:  MOVWF  05
010E:  BCF    03.5
010F:  CLRF   26
0110:  BTFSC  05.5
0111:  INCF   26,F
0112:  CLRF   27
0113:  GOTO   105
0114:  GOTO   11A
....................     
....................      else 
....................          output_bit(PIN_A4,0); 
0115:  BCF    05.4
0116:  MOVLW  EE
0117:  BSF    03.5
0118:  MOVWF  05
0119:  BCF    03.5
....................           
....................       delay_ms(500); 
011A:  MOVLW  02
011B:  MOVWF  29
011C:  MOVLW  FA
011D:  MOVWF  2A
011E:  CALL   00A
011F:  DECFSZ 29,F
0120:  GOTO   11C
0121:  GOTO   0CC
....................    } 
....................  
.................... } 
0122:  SLEEP

Configuration Fuses:
   Word  1: 3F44   INTRC_IO NOWDT PUT NOMCLR BROWNOUT PROTECT NOCPD
